target datalayout = "e-m:e-p270:32:32-p271:32:32-p272:64:64-i64:64-i128:128-f80:128-n8:16:32:64-S128"
target triple = "x86_64-pc-linux-gnu"

%struct.cip_connection_triad = type { i16, i16, i32 }
%struct.nstime_t = type { i64, i32 }
%struct._address = type { i32, i32, ptr, ptr }
%struct.cip_conn_info = type { %struct.cip_connection_triad, i8, i32, %struct.cip_safety_epath_info, i32, ptr, %struct.cip_simple_request_info, i32, i32, i32, %struct.cip_connID_info, %struct.cip_connID_info, i32, i8, i8 }
%struct.cip_safety_epath_info = type { i8, i32, i32, i32, i16, i16, i8, %struct.cip_connection_triad, float }
%struct.cip_simple_request_info = type { i32, i32, i32, i32, i32, i32, i32, i32, i8 }
%struct.cip_connID_info = type { i32, %struct._address, i16, i32, i32, i32, i32, i32, %struct.nstime_t }
%struct._proto_node = type { ptr, ptr, ptr, ptr, ptr, ptr, ptr }
%struct.field_info = type { ptr, i32, i32, i32, i32, i32, i32, ptr, ptr, ptr, i32, i32 }

@ett_connection_path_info = internal global i32 0, align 4
@.str.97 = private unnamed_addr constant [31 x i8] c"Forward Open Connection Path: \00", align 1

; Function Attrs: inlinehint nounwind null_pointer_is_valid sspstrong uwtable
define internal void @proto_item_set_generated(ptr noundef %0) #4 {
  %2 = alloca ptr, align 8
  store ptr %0, ptr %2, align 8
  %3 = load ptr, ptr %2, align 8
  %4 = icmp ne ptr %3, null
  br i1 %4, label %5, label %24

5:                                                ; preds = %1
  br label %6

6:                                                ; preds = %5
  %7 = load ptr, ptr %2, align 8
  %8 = getelementptr inbounds nuw %struct._proto_node, ptr %7, i32 0, i32 5
  %9 = load ptr, ptr %8, align 8
  %10 = icmp ne ptr %9, null
  br i1 %10, label %11, label %22

11:                                               ; preds = %6
  %12 = load ptr, ptr %2, align 8
  %13 = getelementptr inbounds nuw %struct._proto_node, ptr %12, i32 0, i32 5
  %14 = load ptr, ptr %13, align 8
  %15 = getelementptr inbounds nuw %struct.field_info, ptr %14, i32 0, i32 6
  %16 = load i32, ptr %15, align 4
  %17 = or i32 %16, 2
  %18 = load ptr, ptr %2, align 8
  %19 = getelementptr inbounds nuw %struct._proto_node, ptr %18, i32 0, i32 5
  %20 = load ptr, ptr %19, align 8
  %21 = getelementptr inbounds nuw %struct.field_info, ptr %20, i32 0, i32 6
  store i32 %17, ptr %21, align 4
  br label %22

22:                                               ; preds = %11, %6
  br label %23

23:                                               ; preds = %22
  br label %24

24:                                               ; preds = %23, %1
  ret void
}

; Function Attrs: null_pointer_is_valid sspstrong uwtable
define hidden void @display_fwd_open_connection_path(ptr noundef %0, ptr noundef %1, ptr noundef %2, ptr noundef %3) #0 {
  %5 = alloca ptr, align 8
  %6 = alloca ptr, align 8
  %7 = alloca ptr, align 8
  %8 = alloca ptr, align 8
  %9 = alloca ptr, align 8
  %10 = alloca ptr, align 8
  %11 = alloca ptr, align 8
  store ptr %0, ptr %5, align 8
  store ptr %1, ptr %6, align 8
  store ptr %2, ptr %7, align 8
  store ptr %3, ptr %8, align 8
  %12 = load ptr, ptr %5, align 8
  %13 = getelementptr inbounds nuw %struct.cip_conn_info, ptr %12, i32 0, i32 5
  %14 = load ptr, ptr %13, align 8
  %15 = icmp ne ptr %14, null
  br i1 %15, label %17, label %16

16:                                               ; preds = %4
  br label %45

17:                                               ; preds = %4
  call void @llvm.lifetime.start.p0(i64 8, ptr %9) #14
  %18 = load ptr, ptr %5, align 8
  %19 = getelementptr inbounds nuw %struct.cip_conn_info, ptr %18, i32 0, i32 5
  %20 = load ptr, ptr %19, align 8
  %21 = load ptr, ptr %5, align 8
  %22 = getelementptr inbounds nuw %struct.cip_conn_info, ptr %21, i32 0, i32 4
  %23 = load i32, ptr %22, align 4
  %24 = load ptr, ptr %5, align 8
  %25 = getelementptr inbounds nuw %struct.cip_conn_info, ptr %24, i32 0, i32 4
  %26 = load i32, ptr %25, align 4
  %27 = call ptr @tvb_new_real_data(ptr noundef %20, i32 noundef %23, i32 noundef %26)
  store ptr %27, ptr %9, align 8
  %28 = load ptr, ptr %9, align 8
  %29 = icmp ne ptr %28, null
  br i1 %29, label %30, label %44

30:                                               ; preds = %17
  call void @llvm.lifetime.start.p0(i64 8, ptr %10) #14
  store ptr null, ptr %10, align 8
  call void @llvm.lifetime.start.p0(i64 8, ptr %11) #14
  %31 = load ptr, ptr %6, align 8
  %32 = load ptr, ptr %7, align 8
  %33 = load i32, ptr @ett_connection_path_info, align 4
  %34 = call ptr @proto_tree_add_subtree(ptr noundef %31, ptr noundef %32, i32 noundef 0, i32 noundef 0, i32 noundef %33, ptr noundef %10, ptr noundef @.str.97)
  store ptr %34, ptr %11, align 8
  %35 = load ptr, ptr %10, align 8
  call void @proto_item_set_generated(ptr noundef %35)
  %36 = load ptr, ptr %9, align 8
  %37 = load ptr, ptr %8, align 8
  %38 = load ptr, ptr %11, align 8
  %39 = load ptr, ptr %10, align 8
  %40 = load ptr, ptr %5, align 8
  %41 = getelementptr inbounds nuw %struct.cip_conn_info, ptr %40, i32 0, i32 4
  %42 = load i32, ptr %41, align 4
  call void @dissect_epath(ptr noundef %36, ptr noundef %37, ptr noundef %38, ptr noundef %39, i32 noundef 0, i32 noundef %42, i1 noundef zeroext true, i1 noundef zeroext false, ptr noundef null, ptr noundef null, i32 noundef 0, ptr noundef null, i1 noundef zeroext false)
  %43 = load ptr, ptr %9, align 8
  call void @tvb_free(ptr noundef %43)
  call void @llvm.lifetime.end.p0(i64 8, ptr %11) #14
  call void @llvm.lifetime.end.p0(i64 8, ptr %10) #14
  br label %44

44:                                               ; preds = %30, %17
  call void @llvm.lifetime.end.p0(i64 8, ptr %9) #14
  br label %45

45:                                               ; preds = %44, %16
  ret void
}