; Function Attrs: null_pointer_is_valid sspstrong uwtable
define hidden void @display_fwd_open_connection_path(ptr noundef readonly captures(none) %0, ptr noundef %1, ptr noundef %2, ptr noundef %3) local_unnamed_addr #0 {
  %5 = alloca ptr, align 8
  %6 = getelementptr inbounds nuw i8, ptr %0, i64 56
  %7 = load ptr, ptr %6, align 8
  %.not = icmp eq ptr %7, null
  br i1 %.not, label %24, label %8

8:                                                ; preds = %4
  %9 = getelementptr inbounds nuw i8, ptr %0, i64 52
  %10 = load i32, ptr %9, align 4
  %11 = tail call ptr @tvb_new_real_data(ptr noundef nonnull %7, i32 noundef %10, i32 noundef %10)
  %.not13 = icmp eq ptr %11, null
  br i1 %.not13, label %24, label %12

12:                                               ; preds = %8
  call void @llvm.lifetime.start.p0(i64 8, ptr nonnull %5) #12
  store ptr null, ptr %5, align 8
  %13 = load i32, ptr @ett_connection_path_info, align 4
  %14 = call ptr @proto_tree_add_subtree(ptr noundef %1, ptr noundef %2, i32 noundef 0, i32 noundef 0, i32 noundef %13, ptr noundef nonnull %5, ptr noundef nonnull @.str.97)
  %15 = load ptr, ptr %5, align 8
  %.not.i = icmp eq ptr %15, null
  br i1 %.not.i, label %proto_item_set_generated.exit, label %16

16:                                               ; preds = %12
  %17 = getelementptr inbounds nuw i8, ptr %15, i64 40
  %18 = load ptr, ptr %17, align 8
  %.not5.i = icmp eq ptr %18, null
  br i1 %.not5.i, label %proto_item_set_generated.exit, label %19

19:                                               ; preds = %16
  %20 = getelementptr inbounds nuw i8, ptr %18, i64 28
  %21 = load i32, ptr %20, align 4
  %22 = or i32 %21, 2
  store i32 %22, ptr %20, align 4
  br label %proto_item_set_generated.exit

proto_item_set_generated.exit:                    ; preds = %12, %16, %19
  %23 = load i32, ptr %9, align 4
  call void @dissect_epath(ptr noundef nonnull %11, ptr noundef %3, ptr noundef %14, ptr noundef %15, i32 noundef 0, i32 noundef %23, i1 noundef zeroext true, i1 noundef zeroext false, ptr noundef null, ptr noundef null, i32 noundef 0, ptr noundef null, i1 noundef zeroext false)
  call void @tvb_free(ptr noundef nonnull %11)
  call void @llvm.lifetime.end.p0(i64 8, ptr nonnull %5) #12
  br label %24

24:                                               ; preds = %8, %proto_item_set_generated.exit, %4
  ret void
}